
./logs/test.elf:     file format elf32-littleriscv


Disassembly of section .text:

80001000 <_start>:
80001000:	00006117          	auipc	sp,0x6
80001004:	00010113          	mv	sp,sp
80001008:	00000317          	auipc	t1,0x0
8000100c:	01030313          	addi	t1,t1,16 # 80001018 <trap_vector>
80001010:	30531073          	csrw	mtvec,t1
80001014:	0a40006f          	j	800010b8 <main>

80001018 <trap_vector>:
80001018:	f8010113          	addi	sp,sp,-128 # 80006f80 <_estack+0x3f80>
8000101c:	00112223          	sw	ra,4(sp)
80001020:	00212423          	sw	sp,8(sp)
80001024:	00312623          	sw	gp,12(sp)
80001028:	00412823          	sw	tp,16(sp)
8000102c:	00512a23          	sw	t0,20(sp)
80001030:	00612c23          	sw	t1,24(sp)
80001034:	00712e23          	sw	t2,28(sp)
80001038:	02812023          	sw	s0,32(sp)
8000103c:	02912223          	sw	s1,36(sp)
80001040:	02a12423          	sw	a0,40(sp)
80001044:	02b12623          	sw	a1,44(sp)
80001048:	02c12823          	sw	a2,48(sp)
8000104c:	02d12a23          	sw	a3,52(sp)
80001050:	02e12c23          	sw	a4,56(sp)
80001054:	02f12e23          	sw	a5,60(sp)
80001058:	05012023          	sw	a6,64(sp)
8000105c:	05112223          	sw	a7,68(sp)
80001060:	05212423          	sw	s2,72(sp)
80001064:	05312623          	sw	s3,76(sp)
80001068:	05412823          	sw	s4,80(sp)
8000106c:	05512a23          	sw	s5,84(sp)
80001070:	05612c23          	sw	s6,88(sp)
80001074:	05712e23          	sw	s7,92(sp)
80001078:	07812023          	sw	s8,96(sp)
8000107c:	07912223          	sw	s9,100(sp)
80001080:	07a12423          	sw	s10,104(sp)
80001084:	07b12623          	sw	s11,108(sp)
80001088:	07c12823          	sw	t3,112(sp)
8000108c:	07d12a23          	sw	t4,116(sp)
80001090:	07e12c23          	sw	t5,120(sp)
80001094:	07f12e23          	sw	t6,124(sp)
80001098:	342022f3          	csrr	t0,mcause
8000109c:	00129293          	slli	t0,t0,0x1
800010a0:	0012d293          	srli	t0,t0,0x1
800010a4:	00800313          	li	t1,8
800010a8:	00900393          	li	t2,9
800010ac:	0c628063          	beq	t0,t1,8000116c <u_trap_handler>
800010b0:	16728863          	beq	t0,t2,80001220 <s_trap_handler>
800010b4:	2200006f          	j	800012d4 <unknown_trap>

800010b8 <main>:
800010b8:	00000013          	nop
800010bc:	00000013          	nop
800010c0:	00000e17          	auipc	t3,0x0
800010c4:	240e0e13          	addi	t3,t3,576 # 80001300 <begin_signature>
800010c8:	00000e93          	li	t4,0
800010cc:	01de2023          	sw	t4,0(t3)
800010d0:	000e2223          	sw	zero,4(t3)
800010d4:	000e2423          	sw	zero,8(t3)
800010d8:	00100e93          	li	t4,1
800010dc:	01de2023          	sw	t4,0(t3)
800010e0:	00000513          	li	a0,0
800010e4:	03c000ef          	jal	80001120 <switch_mode>
800010e8:	004e2e83          	lw	t4,4(t3)
800010ec:	001e8e93          	addi	t4,t4,1
800010f0:	01de2223          	sw	t4,4(t3)
800010f4:	00000073          	ecall
800010f8:	004e2e83          	lw	t4,4(t3)
800010fc:	001e8e93          	addi	t4,t4,1
80001100:	01de2223          	sw	t4,4(t3)
80001104:	00100513          	li	a0,1
80001108:	018000ef          	jal	80001120 <switch_mode>
8000110c:	004e2e83          	lw	t4,4(t3)
80001110:	001e8e93          	addi	t4,t4,1
80001114:	01de2223          	sw	t4,4(t3)
80001118:	00000073          	ecall
8000111c:	1cc0006f          	j	800012e8 <write_tohost>

80001120 <switch_mode>:
80001120:	00008f93          	mv	t6,ra
80001124:	300022f3          	csrr	t0,mstatus
80001128:	00300313          	li	t1,3
8000112c:	00b31313          	slli	t1,t1,0xb
80001130:	fff34313          	not	t1,t1
80001134:	0062f2b3          	and	t0,t0,t1
80001138:	00100f13          	li	t5,1
8000113c:	00050663          	beqz	a0,80001148 <switch_mode+0x28>
80001140:	03e50063          	beq	a0,t5,80001160 <switch_mode+0x40>
80001144:	1900006f          	j	800012d4 <unknown_trap>
80001148:	00100313          	li	t1,1
8000114c:	00b31313          	slli	t1,t1,0xb
80001150:	0062e2b3          	or	t0,t0,t1
80001154:	341f9073          	csrw	mepc,t6
80001158:	30029073          	csrw	mstatus,t0
8000115c:	30200073          	mret
80001160:	341f9073          	csrw	mepc,t6
80001164:	30029073          	csrw	mstatus,t0
80001168:	30200073          	mret

8000116c <u_trap_handler>:
8000116c:	341023f3          	csrr	t2,mepc
80001170:	00438393          	addi	t2,t2,4
80001174:	34139073          	csrw	mepc,t2
80001178:	300022f3          	csrr	t0,mstatus
8000117c:	00300313          	li	t1,3
80001180:	00b31313          	slli	t1,t1,0xb
80001184:	fff34313          	not	t1,t1
80001188:	0062f2b3          	and	t0,t0,t1
8000118c:	00100313          	li	t1,1
80001190:	00b31313          	slli	t1,t1,0xb
80001194:	0062e2b3          	or	t0,t0,t1
80001198:	30029073          	csrw	mstatus,t0
8000119c:	00412083          	lw	ra,4(sp)
800011a0:	00812103          	lw	sp,8(sp)
800011a4:	00c12183          	lw	gp,12(sp)
800011a8:	01012203          	lw	tp,16(sp)
800011ac:	01412283          	lw	t0,20(sp)
800011b0:	01812303          	lw	t1,24(sp)
800011b4:	01c12383          	lw	t2,28(sp)
800011b8:	02012403          	lw	s0,32(sp)
800011bc:	02412483          	lw	s1,36(sp)
800011c0:	02812503          	lw	a0,40(sp)
800011c4:	02c12583          	lw	a1,44(sp)
800011c8:	03012603          	lw	a2,48(sp)
800011cc:	03412683          	lw	a3,52(sp)
800011d0:	03812703          	lw	a4,56(sp)
800011d4:	03c12783          	lw	a5,60(sp)
800011d8:	04012803          	lw	a6,64(sp)
800011dc:	04412883          	lw	a7,68(sp)
800011e0:	04812903          	lw	s2,72(sp)
800011e4:	04c12983          	lw	s3,76(sp)
800011e8:	05012a03          	lw	s4,80(sp)
800011ec:	05412a83          	lw	s5,84(sp)
800011f0:	05812b03          	lw	s6,88(sp)
800011f4:	05c12b83          	lw	s7,92(sp)
800011f8:	06012c03          	lw	s8,96(sp)
800011fc:	06412c83          	lw	s9,100(sp)
80001200:	06812d03          	lw	s10,104(sp)
80001204:	06c12d83          	lw	s11,108(sp)
80001208:	07012e03          	lw	t3,112(sp)
8000120c:	07412e83          	lw	t4,116(sp)
80001210:	07812f03          	lw	t5,120(sp)
80001214:	07c12f83          	lw	t6,124(sp)
80001218:	08010113          	addi	sp,sp,128
8000121c:	30200073          	mret

80001220 <s_trap_handler>:
80001220:	341023f3          	csrr	t2,mepc
80001224:	00438393          	addi	t2,t2,4
80001228:	34139073          	csrw	mepc,t2
8000122c:	300022f3          	csrr	t0,mstatus
80001230:	00300313          	li	t1,3
80001234:	00b31313          	slli	t1,t1,0xb
80001238:	fff34313          	not	t1,t1
8000123c:	0062f2b3          	and	t0,t0,t1
80001240:	00300313          	li	t1,3
80001244:	00b31313          	slli	t1,t1,0xb
80001248:	0062e2b3          	or	t0,t0,t1
8000124c:	30029073          	csrw	mstatus,t0
80001250:	00412083          	lw	ra,4(sp)
80001254:	00812103          	lw	sp,8(sp)
80001258:	00c12183          	lw	gp,12(sp)
8000125c:	01012203          	lw	tp,16(sp)
80001260:	01412283          	lw	t0,20(sp)
80001264:	01812303          	lw	t1,24(sp)
80001268:	01c12383          	lw	t2,28(sp)
8000126c:	02012403          	lw	s0,32(sp)
80001270:	02412483          	lw	s1,36(sp)
80001274:	02812503          	lw	a0,40(sp)
80001278:	02c12583          	lw	a1,44(sp)
8000127c:	03012603          	lw	a2,48(sp)
80001280:	03412683          	lw	a3,52(sp)
80001284:	03812703          	lw	a4,56(sp)
80001288:	03c12783          	lw	a5,60(sp)
8000128c:	04012803          	lw	a6,64(sp)
80001290:	04412883          	lw	a7,68(sp)
80001294:	04812903          	lw	s2,72(sp)
80001298:	04c12983          	lw	s3,76(sp)
8000129c:	05012a03          	lw	s4,80(sp)
800012a0:	05412a83          	lw	s5,84(sp)
800012a4:	05812b03          	lw	s6,88(sp)
800012a8:	05c12b83          	lw	s7,92(sp)
800012ac:	06012c03          	lw	s8,96(sp)
800012b0:	06412c83          	lw	s9,100(sp)
800012b4:	06812d03          	lw	s10,104(sp)
800012b8:	06c12d83          	lw	s11,108(sp)
800012bc:	07012e03          	lw	t3,112(sp)
800012c0:	07412e83          	lw	t4,116(sp)
800012c4:	07812f03          	lw	t5,120(sp)
800012c8:	07c12f83          	lw	t6,124(sp)
800012cc:	08010113          	addi	sp,sp,128
800012d0:	30200073          	mret

800012d4 <unknown_trap>:
800012d4:	00000297          	auipc	t0,0x0
800012d8:	02c28293          	addi	t0,t0,44 # 80001300 <begin_signature>
800012dc:	0082a303          	lw	t1,8(t0)
800012e0:	00130313          	addi	t1,t1,1
800012e4:	0062a423          	sw	t1,8(t0)

800012e8 <write_tohost>:
800012e8:	00100193          	li	gp,1
800012ec:	ffffff17          	auipc	t5,0xfffff
800012f0:	d03f2a23          	sw	gp,-748(t5) # 80000000 <tohost>
800012f4:	ff5ff06f          	j	800012e8 <write_tohost>

800012f8 <base>:
800012f8:	cafebeef          	.word	0xcafebeef
800012fc:	00000013          	nop

80001300 <begin_signature>:
80001300:	00000013          	nop
